; Function Attrs: mustprogress uwtable
define void @_ZN7meshlab11loadProjectERK11QStringListP8IOPluginR12MeshDocumentRSt6vectorI15MLRenderingDataSaIS8_EEP11GLLogStreamPFbiPKcE(ptr dead_on_unwind noalias writable sret(%"class.std::vector.335") align 8 %0, ptr noundef nonnull align 8 dereferenceable(8) %1, ptr noundef %2, ptr noundef nonnull align 8 dereferenceable(192) %3, ptr noundef nonnull align 8 dereferenceable(24) %4, ptr noundef %5, ptr noundef %6) local_unnamed_addr #9 personality ptr @__gxx_personality_v0 {
  %8 = alloca %class.QFileInfo, align 8
  %9 = alloca %class.QString, align 8
  %10 = load ptr, ptr %1, align 8
  %11 = getelementptr inbounds i8, ptr %10, i64 16
  %12 = getelementptr inbounds i8, ptr %10, i64 8
  %13 = load i32, ptr %12, align 8
  %14 = sext i32 %13 to i64
  %15 = getelementptr inbounds ptr, ptr %11, i64 %14
  call void @_ZN9QFileInfoC1ERK7QString(ptr noundef nonnull align 8 dereferenceable(8) %8, ptr noundef nonnull align 8 dereferenceable(8) %15)
  invoke void @_ZNK9QFileInfo6suffixEv(ptr dead_on_unwind nonnull writable sret(%class.QString) align 8 %9, ptr noundef nonnull align 8 dereferenceable(8) %8)
          to label %16 unwind label %30

16:                                               ; preds = %7
  %17 = load ptr, ptr %2, align 8
  %18 = getelementptr i8, ptr %17, i64 -32
  %19 = load i64, ptr %18, align 8
  %20 = getelementptr inbounds i8, ptr %2, i64 %19
  invoke void @_ZN19MeshLabPluginLogger6setLogEP11GLLogStream(ptr noundef nonnull align 8 dereferenceable(16) %20, ptr noundef %5)
          to label %21 unwind label %32

21:                                               ; preds = %16
  %22 = load ptr, ptr %2, align 8
  %23 = getelementptr inbounds i8, ptr %22, i64 136
  %24 = load ptr, ptr %23, align 8
  invoke void %24(ptr dead_on_unwind writable sret(%"class.std::vector.335") align 8 %0, ptr noundef nonnull align 8 dereferenceable(16) %2, ptr noundef nonnull align 8 dereferenceable(8) %9, ptr noundef nonnull align 8 dereferenceable(8) %1, ptr noundef nonnull align 8 dereferenceable(192) %3, ptr noundef nonnull align 8 dereferenceable(24) %4, ptr noundef %6)
          to label %25 unwind label %32

25:                                               ; preds = %21
  %26 = load ptr, ptr %9, align 8
  %27 = load atomic i32, ptr %26 monotonic, align 4
  switch i32 %27, label %_ZN9QtPrivate8RefCount5derefEv.exit.i [
    i32 0, label %_ZN9QtPrivate8RefCount5derefEv.exit.thread2.i
    i32 -1, label %_ZN7QStringD2Ev.exit
  ]

_ZN9QtPrivate8RefCount5derefEv.exit.i:            ; preds = %25
  %28 = atomicrmw sub ptr %26, i32 1 seq_cst, align 4
  %.not.i = icmp eq i32 %28, 1
  br i1 %.not.i, label %_ZN9QtPrivate8RefCount5derefEv.exit._ZN9QtPrivate8RefCount5derefEv.exit.thread2_crit_edge.i, label %_ZN7QStringD2Ev.exit

_ZN9QtPrivate8RefCount5derefEv.exit._ZN9QtPrivate8RefCount5derefEv.exit.thread2_crit_edge.i: ; preds = %_ZN9QtPrivate8RefCount5derefEv.exit.i
  %.pre.i = load ptr, ptr %9, align 8
  br label %_ZN9QtPrivate8RefCount5derefEv.exit.thread2.i

_ZN9QtPrivate8RefCount5derefEv.exit.thread2.i:    ; preds = %_ZN9QtPrivate8RefCount5derefEv.exit._ZN9QtPrivate8RefCount5derefEv.exit.thread2_crit_edge.i, %25
  %29 = phi ptr [ %.pre.i, %_ZN9QtPrivate8RefCount5derefEv.exit._ZN9QtPrivate8RefCount5derefEv.exit.thread2_crit_edge.i ], [ %26, %25 ]
  call void @_ZN10QArrayData10deallocateEPS_mm(ptr noundef %29, i64 noundef 2, i64 noundef 8) #25
  br label %_ZN7QStringD2Ev.exit

_ZN7QStringD2Ev.exit:                             ; preds = %25, %_ZN9QtPrivate8RefCount5derefEv.exit.i, %_ZN9QtPrivate8RefCount5derefEv.exit.thread2.i
  call void @_ZN9QFileInfoD1Ev(ptr noundef nonnull align 8 dereferenceable(8) %8) #25
  ret void

30:                                               ; preds = %7
  %31 = landingpad { ptr, i32 }
          cleanup
  br label %34

32:                                               ; preds = %21, %16
  %33 = landingpad { ptr, i32 }
          cleanup
  call void @_ZN7QStringD2Ev(ptr noundef nonnull align 8 dereferenceable(8) %9) #25
  br label %34

34:                                               ; preds = %32, %30
  %.pn = phi { ptr, i32 } [ %33, %32 ], [ %31, %30 ]
  call void @_ZN9QFileInfoD1Ev(ptr noundef nonnull align 8 dereferenceable(8) %8) #25
  resume { ptr, i32 } %.pn
}